(dp1
S'test'
p2
ccollections
defaultdict
p3
(c__builtin__
list
p4
tRp5
S'discriminator'
p6
(lp7
cnumpy.core.multiarray
scalar
p8
(cnumpy
dtype
p9
(S'f8'
I0
I1
tRp10
(I3
S'<'
NNNI-1
I-1
I0
tbS'\xb2\x9d\xefg!\x85\xe5?'
tRp11
asS'generator'
p12
(lp13
(lp14
g8
(g10
S'\xde\x93\x87\x85\x95\xe7\x07@'
tRp15
ag8
(g10
S'\xf7\xe4a\xc1\x0c\xee\xe5?'
tRp16
ag8
(g10
S'_\x98LU\x12l\x02@'
tRp17
aasS'lenet'
p18
(lp19
(lp20
g8
(g10
S'\x99\xbb\x96\xf0\xe8\x1e\x02@'
tRp21
ag8
(g10
S'8\xf8\xc2d\xaa`\xbc?'
tRp22
aassS'train'
p23
g3
(g4
tRp24
g6
(lp25
g8
(g9
(S'f4'
I0
I1
tRp26
(I3
S'<'
NNNI-1
I-1
I0
tbS'\x8c\xe2,?'
tRp27
asg12
(lp28
cnumpy.core.multiarray
_reconstruct
p29
(cnumpy
ndarray
p30
(I0
tS'b'
tRp31
(I1
(I3
tg26
I00
S'\x99\x95?@\xef\xed0?\x1eZ\x13@'
tbasg18
(lp32
g29
(g30
(I0
tS'b'
tRp33
(I1
(I2
tg26
I00
S'\xc0\r\x14@\x14\xae\xc7='
tbass.